; Function Attrs: mustprogress nofree norecurse nosync nounwind willreturn memory(write, argmem: readwrite, inaccessiblemem: none) uwtable
define internal fastcc void @emit_rmro(ptr noundef nonnull captures(none) %0, i32 noundef %1, i32 noundef %2, i32 noundef range(i32 0, 256) %3, i32 noundef %4) unnamed_addr #11 {
  %6 = getelementptr inbounds nuw i8, ptr %0, i64 128
  %7 = load ptr, ptr %6, align 8, !tbaa !60
  %.not = icmp samesign ult i32 %3, 128
  br i1 %.not, label %8, label %26

8:                                                ; preds = %5
  %9 = icmp eq i32 %3, 37
  br i1 %9, label %.thread, label %11

.thread:                                          ; preds = %8
  %10 = getelementptr inbounds i8, ptr %7, i64 -4
  store i32 %4, ptr %10, align 4, !tbaa !21
  br label %29

11:                                               ; preds = %8
  %12 = icmp ne i32 %4, 0
  %13 = and i32 %3, 7
  %.not34 = icmp eq i32 %13, 5
  %or.cond = or i1 %12, %.not34
  br i1 %or.cond, label %14, label %22

14:                                               ; preds = %11
  %15 = add i32 %4, 128
  %16 = icmp ult i32 %15, 256
  br i1 %16, label %17, label %20

17:                                               ; preds = %14
  %18 = trunc i32 %4 to i8
  %19 = getelementptr inbounds i8, ptr %7, i64 -1
  store i8 %18, ptr %19, align 1, !tbaa !20
  br label %22

20:                                               ; preds = %14
  %21 = getelementptr inbounds i8, ptr %7, i64 -4
  store i32 %4, ptr %21, align 4, !tbaa !21
  br label %22

22:                                               ; preds = %11, %20, %17
  %.029 = phi ptr [ %19, %17 ], [ %21, %20 ], [ %7, %11 ]
  %.0 = phi i32 [ 64, %17 ], [ 128, %20 ], [ 0, %11 ]
  %23 = icmp eq i32 %13, 4
  br i1 %23, label %24, label %29

24:                                               ; preds = %22
  %25 = getelementptr inbounds i8, ptr %.029, i64 -1
  store i8 36, ptr %25, align 1, !tbaa !20
  br label %29

26:                                               ; preds = %5
  %27 = getelementptr inbounds i8, ptr %7, i64 -4
  store i32 %4, ptr %27, align 4, !tbaa !21
  %28 = getelementptr inbounds i8, ptr %7, i64 -5
  store i8 37, ptr %28, align 1, !tbaa !20
  br label %29

29:                                               ; preds = %.thread, %22, %24, %26
  %.031 = phi i32 [ 4, %26 ], [ %3, %24 ], [ %3, %22 ], [ 37, %.thread ]
  %.130 = phi ptr [ %28, %26 ], [ %25, %24 ], [ %.029, %22 ], [ %10, %.thread ]
  %.1 = phi i32 [ 0, %26 ], [ %.0, %24 ], [ %.0, %22 ], [ 0, %.thread ]
  %30 = shl i32 %2, 3
  %31 = and i32 %30, 56
  %32 = and i32 %.031, 7
  %33 = or disjoint i32 %32, %31
  %34 = add nuw nsw i32 %33, %.1
  %35 = trunc nuw i32 %34 to i8
  %36 = getelementptr inbounds i8, ptr %.130, i64 -1
  store i8 %35, ptr %36, align 1, !tbaa !20
  %sext.i = shl i32 %1, 24
  %37 = icmp eq i32 %sext.i, -1006632960
  br i1 %37, label %38, label %47

38:                                               ; preds = %29
  %39 = lshr i32 %2, 1
  %40 = and i32 %39, 4
  %41 = lshr i32 %.031, 3
  %42 = and i32 %41, 1
  %43 = or disjoint i32 %42, %40
  %44 = shl nuw nsw i32 %43, 13
  %45 = xor i32 %44, %1
  %46 = getelementptr inbounds i8, ptr %.130, i64 -5
  store i32 %45, ptr %46, align 4, !tbaa !21
  br label %emit_op.exit

47:                                               ; preds = %29
  %48 = ashr exact i32 %sext.i, 24
  %49 = getelementptr inbounds i8, ptr %.130, i64 -5
  store i32 %1, ptr %49, align 4, !tbaa !21
  %50 = sext i32 %48 to i64
  %51 = getelementptr inbounds i8, ptr %.130, i64 %50
  %52 = lshr i32 %2, 1
  %53 = and i32 %52, 260
  %54 = lshr i32 %.031, 3
  %55 = and i32 %54, 1
  %56 = or disjoint i32 %55, %53
  %.not.i = icmp eq i32 %56, 0
  br i1 %.not.i, label %emit_op.exit, label %57

57:                                               ; preds = %47
  %58 = lshr i32 %2, 16
  %59 = or i32 %58, %56
  %60 = or i32 %59, 64
  %61 = icmp eq i32 %sext.i, -67108864
  br i1 %61, label %62, label %65

62:                                               ; preds = %57
  %63 = trunc i32 %60 to i8
  store i8 %63, ptr %51, align 1, !tbaa !20
  %64 = lshr i32 %1, 8
  br label %70

65:                                               ; preds = %57
  %66 = and i32 %1, 16777215
  %67 = icmp eq i32 %66, 6684925
  br i1 %67, label %68, label %70

68:                                               ; preds = %65
  %69 = trunc i32 %60 to i8
  store i8 %69, ptr %51, align 1, !tbaa !20
  br label %70

70:                                               ; preds = %68, %65, %62
  %.0.i = phi i32 [ %64, %62 ], [ 102, %68 ], [ %60, %65 ]
  %71 = trunc i32 %.0.i to i8
  %72 = getelementptr inbounds i8, ptr %51, i64 -1
  store i8 %71, ptr %72, align 1, !tbaa !20
  br label %emit_op.exit

emit_op.exit:                                     ; preds = %38, %47, %70
  %.046.i = phi ptr [ %46, %38 ], [ %72, %70 ], [ %51, %47 ]
  store ptr %.046.i, ptr %6, align 8, !tbaa !60
  ret void
}